; Function Attrs: mustprogress uwtable
define hidden noundef nonnull align 8 dereferenceable(144) ptr @_ZN19OpenColorIO_v2_5dev10OpRcPtrVecaSERKS0_(ptr noundef nonnull returned align 8 dereferenceable(144) %0, ptr noundef nonnull align 8 dereferenceable(144) %1) local_unnamed_addr #6 align 2 {
  %.not = icmp eq ptr %0, %1
  br i1 %.not, label %8, label %3

3:                                                ; preds = %2
  %4 = tail call noundef nonnull align 8 dereferenceable(24) ptr @_ZNSt6vectorISt10shared_ptrIN19OpenColorIO_v2_5dev2OpEESaIS3_EEaSERKS5_(ptr noundef nonnull align 8 dereferenceable(24) %0, ptr noundef nonnull align 8 dereferenceable(24) %1)
  %5 = getelementptr inbounds nuw i8, ptr %1, i64 24
  %6 = getelementptr inbounds nuw i8, ptr %0, i64 24
  %7 = tail call noundef nonnull align 8 dereferenceable(120) ptr @_ZN19OpenColorIO_v2_5dev18FormatMetadataImplaSERKS0_(ptr noundef nonnull align 8 dereferenceable(120) %6, ptr noundef nonnull align 8 dereferenceable(120) %5)
  br label %8

8:                                                ; preds = %3, %2
  ret ptr %0
}